; Function Attrs: nounwind uwtable
define ptr @l_Array_foldrMUnsafe_fold___at_Lean_Json_compress_go___spec__2___boxed(ptr noundef %0, ptr noundef %1, ptr noundef %2, ptr noundef %3) local_unnamed_addr #0 {
  %5 = getelementptr i8, ptr %1, i64 8
  %.val15 = load i64, ptr %5, align 8, !tbaa !12
  %6 = ptrtoint ptr %1 to i64
  %7 = and i64 %6, 1
  %.not = icmp eq i64 %7, 0
  br i1 %.not, label %8, label %lean_dec.exit10

8:                                                ; preds = %4
  %9 = load i32, ptr %1, align 4, !tbaa !8
  %10 = icmp sgt i32 %9, 1
  br i1 %10, label %11, label %13, !prof !11

11:                                               ; preds = %8
  %12 = add nsw i32 %9, -1
  store i32 %12, ptr %1, align 4, !tbaa !8
  br label %lean_dec.exit10

13:                                               ; preds = %8
  %.not.i = icmp eq i32 %9, 0
  br i1 %.not.i, label %lean_dec.exit10, label %14

14:                                               ; preds = %13
  tail call void @lean_dec_ref_cold(ptr noundef nonnull %1) #3
  br label %lean_dec.exit10

lean_dec.exit10:                                  ; preds = %14, %13, %11, %4
  %15 = getelementptr i8, ptr %2, i64 8
  %.val = load i64, ptr %15, align 8, !tbaa !12
  %16 = ptrtoint ptr %2 to i64
  %17 = and i64 %16, 1
  %.not17 = icmp eq i64 %17, 0
  br i1 %.not17, label %18, label %lean_dec.exit9

18:                                               ; preds = %lean_dec.exit10
  %19 = load i32, ptr %2, align 4, !tbaa !8
  %20 = icmp sgt i32 %19, 1
  br i1 %20, label %21, label %23, !prof !11

21:                                               ; preds = %18
  %22 = add nsw i32 %19, -1
  store i32 %22, ptr %2, align 4, !tbaa !8
  br label %lean_dec.exit9

23:                                               ; preds = %18
  %.not.i11 = icmp eq i32 %19, 0
  br i1 %.not.i11, label %lean_dec.exit9, label %24

24:                                               ; preds = %23
  tail call void @lean_dec_ref_cold(ptr noundef nonnull %2) #3
  br label %lean_dec.exit9

lean_dec.exit9:                                   ; preds = %24, %23, %21, %lean_dec.exit10
  %.not28.i = icmp eq i64 %.val15, %.val
  br i1 %.not28.i, label %l_Array_foldrMUnsafe_fold___at_Lean_Json_compress_go___spec__2.exit, label %.lr.ph.i

.lr.ph.i:                                         ; preds = %lean_dec.exit9
  %25 = getelementptr inbounds nuw i8, ptr %0, i64 24
  br label %26

26:                                               ; preds = %41, %.lr.ph.i
  %.01630.i = phi i64 [ %.val15, %.lr.ph.i ], [ %27, %41 ]
  %.01829.i = phi ptr [ %3, %.lr.ph.i ], [ %38, %41 ]
  %27 = add i64 %.01630.i, -1
  %28 = getelementptr inbounds nuw [0 x ptr], ptr %25, i64 0, i64 %27
  %29 = load ptr, ptr %28, align 8, !tbaa !4
  %30 = ptrtoint ptr %29 to i64
  %31 = and i64 %30, 1
  %.not.i.i = icmp eq i64 %31, 0
  br i1 %.not.i.i, label %32, label %lean_array_uget.exit.i

32:                                               ; preds = %26
  %.val.i.i.i = load i32, ptr %29, align 4, !tbaa !8
  %33 = icmp sgt i32 %.val.i.i.i, 0
  br i1 %33, label %34, label %36, !prof !11

34:                                               ; preds = %32
  %35 = add nuw i32 %.val.i.i.i, 1
  store i32 %35, ptr %29, align 4, !tbaa !8
  br label %lean_array_uget.exit.i

36:                                               ; preds = %32
  %.not.i.i.i = icmp eq i32 %.val.i.i.i, 0
  br i1 %.not.i.i.i, label %lean_array_uget.exit.i, label %37

37:                                               ; preds = %36
  tail call void @lean_inc_ref_cold(ptr noundef nonnull %29) #3
  br label %lean_array_uget.exit.i

lean_array_uget.exit.i:                           ; preds = %37, %36, %34, %26
  tail call void @lean_inc_heartbeat() #3
  %38 = tail call noalias ptr @mi_malloc_small(i64 noundef 24) #3
  %39 = icmp eq ptr %38, null
  br i1 %39, label %40, label %41

40:                                               ; preds = %lean_array_uget.exit.i
  tail call void @lean_internal_panic_out_of_memory() #4
  unreachable

41:                                               ; preds = %lean_array_uget.exit.i
  %42 = getelementptr inbounds nuw i8, ptr %38, i64 4
  store i32 1, ptr %38, align 4, !tbaa !8
  store i32 16908312, ptr %42, align 4
  %43 = getelementptr inbounds nuw i8, ptr %38, i64 8
  store ptr %29, ptr %43, align 8, !tbaa !4
  %44 = getelementptr inbounds nuw i8, ptr %38, i64 16
  store ptr %.01829.i, ptr %44, align 8, !tbaa !4
  %.not.i16 = icmp eq i64 %27, %.val
  br i1 %.not.i16, label %l_Array_foldrMUnsafe_fold___at_Lean_Json_compress_go___spec__2.exit, label %26

l_Array_foldrMUnsafe_fold___at_Lean_Json_compress_go___spec__2.exit: ; preds = %41, %lean_dec.exit9
  %.018.lcssa.i = phi ptr [ %3, %lean_dec.exit9 ], [ %38, %41 ]
  %45 = ptrtoint ptr %0 to i64
  %46 = and i64 %45, 1
  %.not18 = icmp eq i64 %46, 0
  br i1 %.not18, label %47, label %lean_dec.exit

47:                                               ; preds = %l_Array_foldrMUnsafe_fold___at_Lean_Json_compress_go___spec__2.exit
  %48 = load i32, ptr %0, align 4, !tbaa !8
  %49 = icmp sgt i32 %48, 1
  br i1 %49, label %50, label %52, !prof !11

50:                                               ; preds = %47
  %51 = add nsw i32 %48, -1
  store i32 %51, ptr %0, align 4, !tbaa !8
  br label %lean_dec.exit

52:                                               ; preds = %47
  %.not.i13 = icmp eq i32 %48, 0
  br i1 %.not.i13, label %lean_dec.exit, label %53

53:                                               ; preds = %52
  tail call void @lean_dec_ref_cold(ptr noundef nonnull %0) #3
  br label %lean_dec.exit

lean_dec.exit:                                    ; preds = %53, %52, %50, %l_Array_foldrMUnsafe_fold___at_Lean_Json_compress_go___spec__2.exit
  ret ptr %.018.lcssa.i
}